target datalayout = "e-m:e-p270:32:32-p271:32:32-p272:64:64-i64:64-i128:128-f80:128-n8:16:32:64-S128"
target triple = "x86_64-pc-linux-gnu"

%struct._packet_info = type { ptr, ptr, i32, i32, %struct.nstime_t, %struct.nstime_t, %struct.nstime_t, i8, ptr, ptr, ptr, ptr, %struct._address, %struct._address, %struct._address, %struct._address, %struct._address, %struct._address, i32, ptr, i8, [3 x i8], %struct.anon, i32, i32, i32, i32, ptr, i8, ptr, ptr, i16, i16, i32, i32, i16, i32, i32, ptr, ptr, ptr, i8, i8, i16, i16, i16, i32, i16, i16, ptr, ptr, ptr, ptr, ptr, i32, i32 }
%struct.nstime_t = type { i64, i32 }
%struct._address = type { i32, i32, ptr, ptr }
%struct.anon = type { i8, [3 x i8] }

@hf_parameter = internal global i32 0, align 4
@hf_cgdcont_cid = internal global i32 0, align 4
@hf_cgdcont_pdp_type = internal global i32 0, align 4
@hf_cgdcont_apn = internal global i32 0, align 4
@hf_cgdcont_pdp_addr = internal global i32 0, align 4
@hf_cgdcont_d_comp = internal global i32 0, align 4
@hf_cgdcont_h_comp = internal global i32 0, align 4

; Function Attrs: alwaysinline nounwind
define internal ptr @memcpy.inline(ptr noalias %0, ptr noalias %1, i64 %2) #9 {
  %4 = alloca ptr, align 8
  %5 = alloca ptr, align 8
  %6 = alloca i64, align 8
  store ptr %0, ptr %4, align 8
  store ptr %1, ptr %5, align 8
  store i64 %2, ptr %6, align 8
  %7 = load ptr, ptr %4, align 8
  %8 = load ptr, ptr %5, align 8
  %9 = load i64, ptr %6, align 8
  %10 = load ptr, ptr %4, align 8
  %11 = call i64 @llvm.objectsize.i64.p0(ptr %10, i1 false, i1 true, i1 true)
  %12 = call ptr @__memcpy_chk(ptr noundef %7, ptr noundef %8, i64 noundef %9, i64 noundef %11) #12
  ret ptr %12
}

; Function Attrs: null_pointer_is_valid sspstrong uwtable
define internal i32 @get_uint_parameter(ptr noundef %0, ptr noundef %1, i32 noundef %2) #0 {
  %4 = alloca ptr, align 8
  %5 = alloca ptr, align 8
  %6 = alloca i32, align 4
  %7 = alloca i32, align 4
  %8 = alloca ptr, align 8
  store ptr %0, ptr %4, align 8
  store ptr %1, ptr %5, align 8
  store i32 %2, ptr %6, align 4
  call void @llvm.lifetime.start.p0(i64 4, ptr %7) #12
  call void @llvm.lifetime.start.p0(i64 8, ptr %8) #12
  %9 = load ptr, ptr %4, align 8
  %10 = load i32, ptr %6, align 4
  %11 = add i32 %10, 1
  %12 = sext i32 %11 to i64
  %13 = call noalias ptr @wmem_alloc(ptr noundef %9, i64 noundef %12) #13
  store ptr %13, ptr %8, align 8
  %14 = load ptr, ptr %8, align 8
  %15 = load ptr, ptr %5, align 8
  %16 = load i32, ptr %6, align 4
  %17 = sext i32 %16 to i64
  %18 = call ptr @memcpy.inline(ptr noundef %14, ptr noundef %15, i64 noundef %17) #12
  %19 = load ptr, ptr %8, align 8
  %20 = load i32, ptr %6, align 4
  %21 = sext i32 %20 to i64
  %22 = getelementptr i8, ptr %19, i64 %21
  store i8 0, ptr %22, align 1
  %23 = load ptr, ptr %8, align 8
  %24 = call i64 @g_ascii_strtoull(ptr noundef %23, ptr noundef null, i32 noundef 10)
  %25 = trunc i64 %24 to i32
  store i32 %25, ptr %7, align 4
  %26 = load i32, ptr %7, align 4
  call void @llvm.lifetime.end.p0(i64 8, ptr %8) #12
  call void @llvm.lifetime.end.p0(i64 4, ptr %7) #12
  ret i32 %26
}

; Function Attrs: nounwind null_pointer_is_valid sspstrong uwtable
define internal zeroext i1 @check_cgdcont(i32 noundef %0, i16 noundef zeroext %1) #4 {
  %3 = alloca i1, align 1
  %4 = alloca i32, align 4
  %5 = alloca i16, align 2
  store i32 %0, ptr %4, align 4
  store i16 %1, ptr %5, align 2
  %6 = load i32, ptr %4, align 4
  %7 = icmp eq i32 %6, 2
  br i1 %7, label %8, label %25

8:                                                ; preds = %2
  %9 = load i16, ptr %5, align 2
  %10 = zext i16 %9 to i32
  %11 = icmp eq i32 %10, 61
  br i1 %11, label %24, label %12

12:                                               ; preds = %8
  %13 = load i16, ptr %5, align 2
  %14 = zext i16 %13 to i32
  %15 = icmp eq i32 %14, 13
  br i1 %15, label %24, label %16

16:                                               ; preds = %12
  %17 = load i16, ptr %5, align 2
  %18 = zext i16 %17 to i32
  %19 = icmp eq i32 %18, 63
  br i1 %19, label %24, label %20

20:                                               ; preds = %16
  %21 = load i16, ptr %5, align 2
  %22 = zext i16 %21 to i32
  %23 = icmp eq i32 %22, 15679
  br i1 %23, label %24, label %25

24:                                               ; preds = %20, %16, %12, %8
  store i1 true, ptr %3, align 1
  br label %34

25:                                               ; preds = %20, %2
  %26 = load i32, ptr %4, align 4
  %27 = icmp eq i32 %26, 1
  br i1 %27, label %28, label %33

28:                                               ; preds = %25
  %29 = load i16, ptr %5, align 2
  %30 = zext i16 %29 to i32
  %31 = icmp eq i32 %30, 58
  br i1 %31, label %32, label %33

32:                                               ; preds = %28
  store i1 true, ptr %3, align 1
  br label %34

33:                                               ; preds = %28, %25
  store i1 false, ptr %3, align 1
  br label %34

34:                                               ; preds = %33, %32, %24
  %35 = load i1, ptr %3, align 1
  ret i1 %35
}

; Function Attrs: null_pointer_is_valid sspstrong uwtable
define internal zeroext i1 @dissect_cgdcont_parameter(ptr noundef %0, ptr noundef %1, ptr noundef %2, i32 noundef %3, i32 noundef %4, i16 noundef zeroext %5, ptr noundef %6, i32 noundef %7, i32 noundef %8, ptr noundef %9, ptr noundef %10) #0 {
  %12 = alloca i1, align 1
  %13 = alloca ptr, align 8
  %14 = alloca ptr, align 8
  %15 = alloca ptr, align 8
  %16 = alloca i32, align 4
  %17 = alloca i32, align 4
  %18 = alloca i16, align 2
  %19 = alloca ptr, align 8
  %20 = alloca i32, align 4
  %21 = alloca i32, align 4
  %22 = alloca ptr, align 8
  %23 = alloca ptr, align 8
  %24 = alloca i32, align 4
  %25 = alloca i32, align 4
  store ptr %0, ptr %13, align 8
  store ptr %1, ptr %14, align 8
  store ptr %2, ptr %15, align 8
  store i32 %3, ptr %16, align 4
  store i32 %4, ptr %17, align 4
  store i16 %5, ptr %18, align 2
  store ptr %6, ptr %19, align 8
  store i32 %7, ptr %20, align 4
  store i32 %8, ptr %21, align 4
  store ptr %9, ptr %22, align 8
  store ptr %10, ptr %23, align 8
  call void @llvm.lifetime.start.p0(i64 4, ptr %24) #12
  %26 = load i32, ptr %17, align 4
  %27 = load i16, ptr %18, align 2
  %28 = call zeroext i1 @check_cgdcont(i32 noundef %26, i16 noundef zeroext %27)
  br i1 %28, label %30, label %29

29:                                               ; preds = %11
  store i1 false, ptr %12, align 1
  store i32 1, ptr %25, align 4
  br label %103

30:                                               ; preds = %11
  %31 = load i32, ptr %20, align 4
  switch i32 %31, label %95 [
    i32 0, label %32
    i32 1, label %46
    i32 2, label %53
    i32 3, label %60
    i32 4, label %67
    i32 5, label %81
  ]

32:                                               ; preds = %30
  %33 = load ptr, ptr %14, align 8
  %34 = getelementptr inbounds nuw %struct._packet_info, ptr %33, i32 0, i32 51
  %35 = load ptr, ptr %34, align 8
  %36 = load ptr, ptr %19, align 8
  %37 = load i32, ptr %21, align 4
  %38 = call i32 @get_uint_parameter(ptr noundef %35, ptr noundef %36, i32 noundef %37)
  store i32 %38, ptr %24, align 4
  %39 = load ptr, ptr %15, align 8
  %40 = load i32, ptr @hf_cgdcont_cid, align 4
  %41 = load ptr, ptr %13, align 8
  %42 = load i32, ptr %16, align 4
  %43 = load i32, ptr %21, align 4
  %44 = load i32, ptr %24, align 4
  %45 = call ptr @proto_tree_add_uint(ptr noundef %39, i32 noundef %40, ptr noundef %41, i32 noundef %42, i32 noundef %43, i32 noundef %44)
  br label %102

46:                                               ; preds = %30
  %47 = load ptr, ptr %15, align 8
  %48 = load i32, ptr @hf_cgdcont_pdp_type, align 4
  %49 = load ptr, ptr %13, align 8
  %50 = load i32, ptr %16, align 4
  %51 = load i32, ptr %21, align 4
  %52 = call ptr @proto_tree_add_item(ptr noundef %47, i32 noundef %48, ptr noundef %49, i32 noundef %50, i32 noundef %51, i32 noundef 0)
  br label %102

53:                                               ; preds = %30
  %54 = load ptr, ptr %15, align 8
  %55 = load i32, ptr @hf_cgdcont_apn, align 4
  %56 = load ptr, ptr %13, align 8
  %57 = load i32, ptr %16, align 4
  %58 = load i32, ptr %21, align 4
  %59 = call ptr @proto_tree_add_item(ptr noundef %54, i32 noundef %55, ptr noundef %56, i32 noundef %57, i32 noundef %58, i32 noundef 0)
  br label %102

60:                                               ; preds = %30
  %61 = load ptr, ptr %15, align 8
  %62 = load i32, ptr @hf_cgdcont_pdp_addr, align 4
  %63 = load ptr, ptr %13, align 8
  %64 = load i32, ptr %16, align 4
  %65 = load i32, ptr %21, align 4
  %66 = call ptr @proto_tree_add_item(ptr noundef %61, i32 noundef %62, ptr noundef %63, i32 noundef %64, i32 noundef %65, i32 noundef 0)
  br label %102

67:                                               ; preds = %30
  %68 = load ptr, ptr %14, align 8
  %69 = getelementptr inbounds nuw %struct._packet_info, ptr %68, i32 0, i32 51
  %70 = load ptr, ptr %69, align 8
  %71 = load ptr, ptr %19, align 8
  %72 = load i32, ptr %21, align 4
  %73 = call i32 @get_uint_parameter(ptr noundef %70, ptr noundef %71, i32 noundef %72)
  store i32 %73, ptr %24, align 4
  %74 = load ptr, ptr %15, align 8
  %75 = load i32, ptr @hf_cgdcont_d_comp, align 4
  %76 = load ptr, ptr %13, align 8
  %77 = load i32, ptr %16, align 4
  %78 = load i32, ptr %21, align 4
  %79 = load i32, ptr %24, align 4
  %80 = call ptr @proto_tree_add_uint(ptr noundef %74, i32 noundef %75, ptr noundef %76, i32 noundef %77, i32 noundef %78, i32 noundef %79)
  br label %102

81:                                               ; preds = %30
  %82 = load ptr, ptr %14, align 8
  %83 = getelementptr inbounds nuw %struct._packet_info, ptr %82, i32 0, i32 51
  %84 = load ptr, ptr %83, align 8
  %85 = load ptr, ptr %19, align 8
  %86 = load i32, ptr %21, align 4
  %87 = call i32 @get_uint_parameter(ptr noundef %84, ptr noundef %85, i32 noundef %86)
  store i32 %87, ptr %24, align 4
  %88 = load ptr, ptr %15, align 8
  %89 = load i32, ptr @hf_cgdcont_h_comp, align 4
  %90 = load ptr, ptr %13, align 8
  %91 = load i32, ptr %16, align 4
  %92 = load i32, ptr %21, align 4
  %93 = load i32, ptr %24, align 4
  %94 = call ptr @proto_tree_add_uint(ptr noundef %88, i32 noundef %89, ptr noundef %90, i32 noundef %91, i32 noundef %92, i32 noundef %93)
  br label %102

95:                                               ; preds = %30
  %96 = load ptr, ptr %15, align 8
  %97 = load i32, ptr @hf_parameter, align 4
  %98 = load ptr, ptr %13, align 8
  %99 = load i32, ptr %16, align 4
  %100 = load i32, ptr %21, align 4
  %101 = call ptr @proto_tree_add_item(ptr noundef %96, i32 noundef %97, ptr noundef %98, i32 noundef %99, i32 noundef %100, i32 noundef 0)
  br label %102

102:                                              ; preds = %95, %81, %67, %60, %53, %46, %32
  store i1 true, ptr %12, align 1
  store i32 1, ptr %25, align 4
  br label %103

103:                                              ; preds = %102, %29
  call void @llvm.lifetime.end.p0(i64 4, ptr %24) #12
  %104 = load i1, ptr %12, align 1
  ret i1 %104
}