; Function Attrs: null_pointer_is_valid sspstrong uwtable
define internal noundef zeroext i1 @dissect_cgdcont_parameter(ptr noundef %0, ptr noundef readonly captures(none) %1, ptr noundef %2, i32 noundef %3, i32 noundef %4, i16 noundef zeroext %5, ptr noundef readonly captures(none) %6, i32 noundef %7, i32 noundef %8, ptr readnone captures(none) %9, ptr readnone captures(none) %10) #0 {
  %12 = icmp eq i32 %4, 2
  br i1 %12, label %13, label %check_cgdcont.exit

13:                                               ; preds = %11
  switch i16 %5, label %check_cgdcont.exit.thread46 [
    i16 15679, label %check_cgdcont.exit.thread
    i16 63, label %check_cgdcont.exit.thread
    i16 61, label %check_cgdcont.exit.thread
    i16 13, label %check_cgdcont.exit.thread
  ]

check_cgdcont.exit:                               ; preds = %11
  %14 = icmp eq i32 %4, 1
  %15 = icmp eq i16 %5, 58
  %or.cond11.i = and i1 %14, %15
  br i1 %or.cond11.i, label %check_cgdcont.exit.thread, label %check_cgdcont.exit.thread46

check_cgdcont.exit.thread:                        ; preds = %13, %13, %13, %13, %check_cgdcont.exit
  switch i32 %7, label %67 [
    i32 0, label %16
    i32 1, label %30
    i32 2, label %33
    i32 3, label %36
    i32 4, label %39
    i32 5, label %53
  ]

16:                                               ; preds = %check_cgdcont.exit.thread
  %17 = getelementptr inbounds nuw i8, ptr %1, i64 408
  %18 = load ptr, ptr %17, align 8
  %19 = add i32 %8, 1
  %20 = sext i32 %19 to i64
  %21 = tail call noalias ptr @wmem_alloc(ptr noundef %18, i64 noundef %20) #12
  %22 = sext i32 %8 to i64
  %23 = icmp ne i32 %19, -1
  tail call void @llvm.assume(i1 %23)
  %24 = tail call ptr @__memcpy_chk(ptr noundef %21, ptr noundef readonly %6, i64 noundef range(i64 -2147483648, 2147483648) %22, i64 noundef %20) #13, !alias.scope !18
  %25 = getelementptr i8, ptr %21, i64 %22
  store i8 0, ptr %25, align 1
  %26 = tail call i64 @g_ascii_strtoull(ptr noundef %21, ptr noundef null, i32 noundef 10)
  %27 = trunc i64 %26 to i32
  %28 = load i32, ptr @hf_cgdcont_cid, align 4
  %29 = tail call ptr @proto_tree_add_uint(ptr noundef %2, i32 noundef %28, ptr noundef %0, i32 noundef %3, i32 noundef %8, i32 noundef %27)
  br label %check_cgdcont.exit.thread46

30:                                               ; preds = %check_cgdcont.exit.thread
  %31 = load i32, ptr @hf_cgdcont_pdp_type, align 4
  %32 = tail call ptr @proto_tree_add_item(ptr noundef %2, i32 noundef %31, ptr noundef %0, i32 noundef %3, i32 noundef %8, i32 noundef 0)
  br label %check_cgdcont.exit.thread46

33:                                               ; preds = %check_cgdcont.exit.thread
  %34 = load i32, ptr @hf_cgdcont_apn, align 4
  %35 = tail call ptr @proto_tree_add_item(ptr noundef %2, i32 noundef %34, ptr noundef %0, i32 noundef %3, i32 noundef %8, i32 noundef 0)
  br label %check_cgdcont.exit.thread46

36:                                               ; preds = %check_cgdcont.exit.thread
  %37 = load i32, ptr @hf_cgdcont_pdp_addr, align 4
  %38 = tail call ptr @proto_tree_add_item(ptr noundef %2, i32 noundef %37, ptr noundef %0, i32 noundef %3, i32 noundef %8, i32 noundef 0)
  br label %check_cgdcont.exit.thread46

39:                                               ; preds = %check_cgdcont.exit.thread
  %40 = getelementptr inbounds nuw i8, ptr %1, i64 408
  %41 = load ptr, ptr %40, align 8
  %42 = add i32 %8, 1
  %43 = sext i32 %42 to i64
  %44 = tail call noalias ptr @wmem_alloc(ptr noundef %41, i64 noundef %43) #12
  %45 = sext i32 %8 to i64
  %46 = icmp ne i32 %42, -1
  tail call void @llvm.assume(i1 %46)
  %47 = tail call ptr @__memcpy_chk(ptr noundef %44, ptr noundef readonly %6, i64 noundef range(i64 -2147483648, 2147483648) %45, i64 noundef %43) #13, !alias.scope !22
  %48 = getelementptr i8, ptr %44, i64 %45
  store i8 0, ptr %48, align 1
  %49 = tail call i64 @g_ascii_strtoull(ptr noundef %44, ptr noundef null, i32 noundef 10)
  %50 = trunc i64 %49 to i32
  %51 = load i32, ptr @hf_cgdcont_d_comp, align 4
  %52 = tail call ptr @proto_tree_add_uint(ptr noundef %2, i32 noundef %51, ptr noundef %0, i32 noundef %3, i32 noundef %8, i32 noundef %50)
  br label %check_cgdcont.exit.thread46

53:                                               ; preds = %check_cgdcont.exit.thread
  %54 = getelementptr inbounds nuw i8, ptr %1, i64 408
  %55 = load ptr, ptr %54, align 8
  %56 = add i32 %8, 1
  %57 = sext i32 %56 to i64
  %58 = tail call noalias ptr @wmem_alloc(ptr noundef %55, i64 noundef %57) #12
  %59 = sext i32 %8 to i64
  %60 = icmp ne i32 %56, -1
  tail call void @llvm.assume(i1 %60)
  %61 = tail call ptr @__memcpy_chk(ptr noundef %58, ptr noundef readonly %6, i64 noundef range(i64 -2147483648, 2147483648) %59, i64 noundef %57) #13, !alias.scope !26
  %62 = getelementptr i8, ptr %58, i64 %59
  store i8 0, ptr %62, align 1
  %63 = tail call i64 @g_ascii_strtoull(ptr noundef %58, ptr noundef null, i32 noundef 10)
  %64 = trunc i64 %63 to i32
  %65 = load i32, ptr @hf_cgdcont_h_comp, align 4
  %66 = tail call ptr @proto_tree_add_uint(ptr noundef %2, i32 noundef %65, ptr noundef %0, i32 noundef %3, i32 noundef %8, i32 noundef %64)
  br label %check_cgdcont.exit.thread46

67:                                               ; preds = %check_cgdcont.exit.thread
  %68 = load i32, ptr @hf_parameter, align 4
  %69 = tail call ptr @proto_tree_add_item(ptr noundef %2, i32 noundef %68, ptr noundef %0, i32 noundef %3, i32 noundef %8, i32 noundef 0)
  br label %check_cgdcont.exit.thread46

check_cgdcont.exit.thread46:                      ; preds = %13, %16, %30, %33, %36, %39, %53, %67, %check_cgdcont.exit
  %.0.i44 = phi i1 [ true, %16 ], [ true, %30 ], [ true, %33 ], [ true, %36 ], [ true, %39 ], [ true, %53 ], [ true, %67 ], [ false, %check_cgdcont.exit ], [ false, %13 ]
  ret i1 %.0.i44
}